target datalayout = "e-m:e-p270:32:32-p271:32:32-p272:64:64-i64:64-i128:128-f80:128-n8:16:32:64-S128"
target triple = "x86_64-pc-linux-gnu"

%"class.Imf_3_4::Attribute" = type { ptr }
%"class.Imath_3_2::Vec3" = type { i32, i32, i32 }
%"class.Imf_3_4::TypedAttribute.13" = type <{ %"class.Imf_3_4::Attribute", %"class.Imath_3_2::Vec3", [4 x i8] }>

@_ZTISt9exception = external constant ptr
@_ZN12_GLOBAL__N_112errorMessageE = internal global [1024 x i8] zeroinitializer, align 16
@_ZTIN7Imf_3_49AttributeE = external constant ptr
@.str = private unnamed_addr constant [27 x i8] c"Unexpected attribute type.\00", align 1
@_ZTIN7Iex_3_47TypeExcE = external constant ptr
@_ZTIN7Imf_3_414TypedAttributeIN9Imath_3_24Vec3IiEEEE = external constant ptr

; Function Attrs: noinline noreturn nounwind uwtable
define linkonce_odr hidden void @__clang_call_terminate(ptr noundef %0) #11 comdat {
  %2 = call ptr @__cxa_begin_catch(ptr %0) #3
  call void @_ZSt9terminatev() #18
  unreachable
}

; Function Attrs: mustprogress nounwind uwtable
define internal void @_ZN12_GLOBAL__N_115setErrorMessageERKSt9exception(ptr noundef nonnull align 8 dereferenceable(8) %0) #4 {
  %2 = alloca ptr, align 8
  store ptr %0, ptr %2, align 8, !tbaa !23
  %3 = load ptr, ptr %2, align 8, !tbaa !23
  %4 = load ptr, ptr %3, align 8, !tbaa !30
  %5 = getelementptr inbounds ptr, ptr %4, i64 2
  %6 = load ptr, ptr %5, align 8
  %7 = call noundef ptr %6(ptr noundef nonnull align 8 dereferenceable(8) %3) #3
  %8 = call ptr @strncpy(ptr noundef @_ZN12_GLOBAL__N_112errorMessageE, ptr noundef %7, i64 noundef 1023) #3
  store i8 0, ptr getelementptr inbounds ([1024 x i8], ptr @_ZN12_GLOBAL__N_112errorMessageE, i64 0, i64 1023), align 1, !tbaa !32
  ret void
}

; Function Attrs: inlinehint mustprogress nounwind uwtable
define available_externally noundef nonnull align 4 dereferenceable(12) ptr @_ZNK7Imf_3_414TypedAttributeIN9Imath_3_24Vec3IiEEE5valueEv(ptr noundef nonnull align 8 dereferenceable(20) %0) #6 align 2 {
  %2 = alloca ptr, align 8
  store ptr %0, ptr %2, align 8, !tbaa !103
  %3 = load ptr, ptr %2, align 8
  %4 = getelementptr inbounds nuw %"class.Imf_3_4::TypedAttribute.13", ptr %3, i32 0, i32 1
  ret ptr %4
}

; Function Attrs: mustprogress uwtable
define linkonce_odr noundef nonnull align 8 dereferenceable(20) ptr @_ZNK7Imf_3_46Header14typedAttributeINS_14TypedAttributeIN9Imath_3_24Vec3IiEEEEEERKT_PKc(ptr noundef nonnull align 8 dereferenceable(49) %0, ptr noundef %1) #7 comdat align 2 personality ptr @__gxx_personality_v0 {
  %3 = alloca ptr, align 8
  %4 = alloca ptr, align 8
  %5 = alloca ptr, align 8
  %6 = alloca ptr, align 8
  %7 = alloca ptr, align 8
  %8 = alloca i32, align 4
  store ptr %0, ptr %3, align 8, !tbaa !59
  store ptr %1, ptr %4, align 8, !tbaa !53
  %9 = load ptr, ptr %3, align 8
  call void @llvm.lifetime.start.p0(i64 8, ptr %5) #3
  %10 = load ptr, ptr %4, align 8, !tbaa !53
  %11 = call noundef nonnull align 8 dereferenceable(8) ptr @_ZNK7Imf_3_46HeaderixEPKc(ptr noundef nonnull align 8 dereferenceable(49) %9, ptr noundef %10)
  store ptr %11, ptr %5, align 8, !tbaa !61
  call void @llvm.lifetime.start.p0(i64 8, ptr %6) #3
  %12 = load ptr, ptr %5, align 8, !tbaa !61
  %13 = icmp eq ptr %12, null
  br i1 %13, label %16, label %14

14:                                               ; preds = %2
  %15 = call ptr @__dynamic_cast(ptr %12, ptr @_ZTIN7Imf_3_49AttributeE, ptr @_ZTIN7Imf_3_414TypedAttributeIN9Imath_3_24Vec3IiEEEE, i64 0) #3
  br label %17

16:                                               ; preds = %2
  br label %17

17:                                               ; preds = %16, %14
  %18 = phi ptr [ %15, %14 ], [ null, %16 ]
  store ptr %18, ptr %6, align 8, !tbaa !103
  %19 = load ptr, ptr %6, align 8, !tbaa !103
  %20 = icmp eq ptr %19, null
  br i1 %20, label %21, label %28

21:                                               ; preds = %17
  %22 = call ptr @__cxa_allocate_exception(i64 72) #3
  invoke void @_ZN7Iex_3_47TypeExcC1EPKc(ptr noundef nonnull align 8 dereferenceable(72) %22, ptr noundef @.str)
          to label %23 unwind label %24

23:                                               ; preds = %21
  call void @__cxa_throw(ptr %22, ptr @_ZTIN7Iex_3_47TypeExcE, ptr @_ZN7Iex_3_47TypeExcD1Ev) #21
  unreachable

24:                                               ; preds = %21
  %25 = landingpad { ptr, i32 }
          cleanup
  %26 = extractvalue { ptr, i32 } %25, 0
  store ptr %26, ptr %7, align 8
  %27 = extractvalue { ptr, i32 } %25, 1
  store i32 %27, ptr %8, align 4
  call void @__cxa_free_exception(ptr %22) #3
  call void @llvm.lifetime.end.p0(i64 8, ptr %6) #3
  call void @llvm.lifetime.end.p0(i64 8, ptr %5) #3
  br label %30

28:                                               ; preds = %17
  %29 = load ptr, ptr %6, align 8, !tbaa !103
  call void @llvm.lifetime.end.p0(i64 8, ptr %6) #3
  call void @llvm.lifetime.end.p0(i64 8, ptr %5) #3
  ret ptr %29

30:                                               ; preds = %24
  %31 = load ptr, ptr %7, align 8
  %32 = load i32, ptr %8, align 4
  %33 = insertvalue { ptr, i32 } poison, ptr %31, 0
  %34 = insertvalue { ptr, i32 } %33, i32 %32, 1
  resume { ptr, i32 } %34
}

; Function Attrs: inlinehint mustprogress nounwind uwtable
define internal noundef ptr @_ZN12_GLOBAL__N_16headerEPK9ImfHeader(ptr noundef %0) #6 {
  %2 = alloca ptr, align 8
  store ptr %0, ptr %2, align 8, !tbaa !33
  %3 = load ptr, ptr %2, align 8, !tbaa !33
  ret ptr %3
}

; Function Attrs: mustprogress uwtable
define i32 @ImfHeaderV3iAttribute(ptr noundef %0, ptr noundef %1, ptr noundef %2, ptr noundef %3, ptr noundef %4) #7 personality ptr @__gxx_personality_v0 {
  %6 = alloca i32, align 4
  %7 = alloca ptr, align 8
  %8 = alloca ptr, align 8
  %9 = alloca ptr, align 8
  %10 = alloca ptr, align 8
  %11 = alloca ptr, align 8
  %12 = alloca ptr, align 8
  %13 = alloca ptr, align 8
  %14 = alloca i32, align 4
  %15 = alloca ptr, align 8
  store ptr %0, ptr %7, align 8, !tbaa !33
  store ptr %1, ptr %8, align 8, !tbaa !53
  store ptr %2, ptr %9, align 8, !tbaa !42
  store ptr %3, ptr %10, align 8, !tbaa !42
  store ptr %4, ptr %11, align 8, !tbaa !42
  call void @llvm.lifetime.start.p0(i64 8, ptr %12) #3
  %16 = load ptr, ptr %7, align 8, !tbaa !33
  %17 = invoke noundef ptr @_ZN12_GLOBAL__N_16headerEPK9ImfHeader(ptr noundef %16)
          to label %18 unwind label %36

18:                                               ; preds = %5
  %19 = load ptr, ptr %8, align 8, !tbaa !53
  %20 = invoke noundef nonnull align 8 dereferenceable(20) ptr @_ZNK7Imf_3_46Header14typedAttributeINS_14TypedAttributeIN9Imath_3_24Vec3IiEEEEEERKT_PKc(ptr noundef nonnull align 8 dereferenceable(49) %17, ptr noundef %19)
          to label %21 unwind label %36

21:                                               ; preds = %18
  %22 = invoke noundef nonnull align 4 dereferenceable(12) ptr @_ZNK7Imf_3_414TypedAttributeIN9Imath_3_24Vec3IiEEE5valueEv(ptr noundef nonnull align 8 dereferenceable(20) %20)
          to label %23 unwind label %36

23:                                               ; preds = %21
  store ptr %22, ptr %12, align 8, !tbaa !97
  %24 = load ptr, ptr %12, align 8, !tbaa !97
  %25 = getelementptr inbounds nuw %"class.Imath_3_2::Vec3", ptr %24, i32 0, i32 0
  %26 = load i32, ptr %25, align 4, !tbaa !99
  %27 = load ptr, ptr %9, align 8, !tbaa !42
  store i32 %26, ptr %27, align 4, !tbaa !16
  %28 = load ptr, ptr %12, align 8, !tbaa !97
  %29 = getelementptr inbounds nuw %"class.Imath_3_2::Vec3", ptr %28, i32 0, i32 1
  %30 = load i32, ptr %29, align 4, !tbaa !101
  %31 = load ptr, ptr %10, align 8, !tbaa !42
  store i32 %30, ptr %31, align 4, !tbaa !16
  %32 = load ptr, ptr %12, align 8, !tbaa !97
  %33 = getelementptr inbounds nuw %"class.Imath_3_2::Vec3", ptr %32, i32 0, i32 2
  %34 = load i32, ptr %33, align 4, !tbaa !102
  %35 = load ptr, ptr %11, align 8, !tbaa !42
  store i32 %34, ptr %35, align 4, !tbaa !16
  store i32 1, ptr %6, align 4
  call void @llvm.lifetime.end.p0(i64 8, ptr %12) #3
  br label %55

36:                                               ; preds = %21, %18, %5
  %37 = landingpad { ptr, i32 }
          cleanup
          catch ptr @_ZTISt9exception
  %38 = extractvalue { ptr, i32 } %37, 0
  store ptr %38, ptr %13, align 8
  %39 = extractvalue { ptr, i32 } %37, 1
  store i32 %39, ptr %14, align 4
  call void @llvm.lifetime.end.p0(i64 8, ptr %12) #3
  br label %40

40:                                               ; preds = %36
  %41 = load i32, ptr %14, align 4
  %42 = call i32 @llvm.eh.typeid.for.p0(ptr @_ZTISt9exception) #3
  %43 = icmp eq i32 %41, %42
  br i1 %43, label %44, label %57

44:                                               ; preds = %40
  call void @llvm.lifetime.start.p0(i64 8, ptr %15) #3
  %45 = load ptr, ptr %13, align 8
  %46 = call ptr @__cxa_begin_catch(ptr %45) #3
  store ptr %46, ptr %15, align 8
  %47 = load ptr, ptr %15, align 8, !tbaa !23
  invoke void @_ZN12_GLOBAL__N_115setErrorMessageERKSt9exception(ptr noundef nonnull align 8 dereferenceable(8) %47)
          to label %48 unwind label %49

48:                                               ; preds = %44
  store i32 0, ptr %6, align 4
  call void @__cxa_end_catch()
  call void @llvm.lifetime.end.p0(i64 8, ptr %15) #3
  br label %55

49:                                               ; preds = %44
  %50 = landingpad { ptr, i32 }
          cleanup
  %51 = extractvalue { ptr, i32 } %50, 0
  store ptr %51, ptr %13, align 8
  %52 = extractvalue { ptr, i32 } %50, 1
  store i32 %52, ptr %14, align 4
  invoke void @__cxa_end_catch()
          to label %53 unwind label %62

53:                                               ; preds = %49
  call void @llvm.lifetime.end.p0(i64 8, ptr %15) #3
  br label %57

54:                                               ; No predecessors!
  unreachable

55:                                               ; preds = %48, %23
  %56 = load i32, ptr %6, align 4
  ret i32 %56

57:                                               ; preds = %53, %40
  %58 = load ptr, ptr %13, align 8
  %59 = load i32, ptr %14, align 4
  %60 = insertvalue { ptr, i32 } poison, ptr %58, 0
  %61 = insertvalue { ptr, i32 } %60, i32 %59, 1
  resume { ptr, i32 } %61

62:                                               ; preds = %49
  %63 = landingpad { ptr, i32 }
          catch ptr null
  %64 = extractvalue { ptr, i32 } %63, 0
  call void @__clang_call_terminate(ptr %64) #18
  unreachable
}