; Function Attrs: mustprogress uwtable
define range(i32 0, 2) i32 @ImfHeaderV3iAttribute(ptr noundef nonnull %0, ptr noundef %1, ptr noundef writeonly captures(none) %2, ptr noundef writeonly captures(none) %3, ptr noundef writeonly captures(none) %4) local_unnamed_addr #8 personality ptr @__gxx_personality_v0 {
  %6 = invoke noundef nonnull align 8 dereferenceable(8) ptr @_ZNK7Imf_3_46HeaderixEPKc(ptr noundef nonnull align 8 dereferenceable(49) %0, ptr noundef %1)
          to label %.noexc unwind label %20

.noexc:                                           ; preds = %5
  %7 = tail call ptr @__dynamic_cast(ptr nonnull %6, ptr nonnull @_ZTIN7Imf_3_49AttributeE, ptr nonnull @_ZTIN7Imf_3_414TypedAttributeIN9Imath_3_24Vec3IiEEEE, i64 0) #24
  %8 = icmp eq ptr %7, null
  br i1 %8, label %9, label %_ZNK7Imf_3_46Header14typedAttributeINS_14TypedAttributeIN9Imath_3_24Vec3IiEEEEEERKT_PKc.exit

9:                                                ; preds = %.noexc
  %10 = tail call ptr @__cxa_allocate_exception(i64 72) #24
  invoke void @_ZN7Iex_3_47TypeExcC1EPKc(ptr noundef nonnull align 8 dereferenceable(72) %10, ptr noundef nonnull @.str)
          to label %11 unwind label %12

11:                                               ; preds = %9
  invoke void @__cxa_throw(ptr nonnull %10, ptr nonnull @_ZTIN7Iex_3_47TypeExcE, ptr nonnull @_ZN7Iex_3_47TypeExcD1Ev) #26
          to label %.noexc13 unwind label %20

.noexc13:                                         ; preds = %11
  unreachable

12:                                               ; preds = %9
  %13 = landingpad { ptr, i32 }
          cleanup
          catch ptr @_ZTISt9exception
  tail call void @__cxa_free_exception(ptr nonnull %10) #24
  br label %.body

_ZNK7Imf_3_46Header14typedAttributeINS_14TypedAttributeIN9Imath_3_24Vec3IiEEEEEERKT_PKc.exit: ; preds = %.noexc
  %14 = getelementptr inbounds nuw i8, ptr %7, i64 8
  %15 = load i32, ptr %14, align 4, !tbaa !54
  store i32 %15, ptr %2, align 4, !tbaa !28
  %16 = getelementptr inbounds nuw i8, ptr %7, i64 12
  %17 = load i32, ptr %16, align 4, !tbaa !56
  store i32 %17, ptr %3, align 4, !tbaa !28
  %18 = getelementptr inbounds nuw i8, ptr %7, i64 16
  %19 = load i32, ptr %18, align 4, !tbaa !57
  store i32 %19, ptr %4, align 4, !tbaa !28
  br label %33

20:                                               ; preds = %11, %5
  %21 = landingpad { ptr, i32 }
          cleanup
          catch ptr @_ZTISt9exception
  br label %.body

.body:                                            ; preds = %12, %20
  %eh.lpad-body = phi { ptr, i32 } [ %21, %20 ], [ %13, %12 ]
  %22 = extractvalue { ptr, i32 } %eh.lpad-body, 1
  %23 = tail call i32 @llvm.eh.typeid.for.p0(ptr nonnull @_ZTISt9exception) #24
  %24 = icmp eq i32 %22, %23
  br i1 %24, label %25, label %34

25:                                               ; preds = %.body
  %26 = extractvalue { ptr, i32 } %eh.lpad-body, 0
  %27 = tail call ptr @__cxa_begin_catch(ptr %26) #24
  %28 = load ptr, ptr %27, align 8, !tbaa !22
  %29 = getelementptr inbounds nuw i8, ptr %28, i64 16
  %30 = load ptr, ptr %29, align 8
  %31 = tail call noundef ptr %30(ptr noundef nonnull align 8 dereferenceable(8) %27) #24
  %32 = tail call ptr @strncpy(ptr noundef nonnull dereferenceable(1) @_ZN12_GLOBAL__N_112errorMessageE, ptr noundef nonnull dereferenceable(1) %31, i64 noundef 1023) #24
  store i8 0, ptr getelementptr inbounds nuw (i8, ptr @_ZN12_GLOBAL__N_112errorMessageE, i64 1023), align 1, !tbaa !15
  tail call void @__cxa_end_catch()
  br label %33

33:                                               ; preds = %25, %_ZNK7Imf_3_46Header14typedAttributeINS_14TypedAttributeIN9Imath_3_24Vec3IiEEEEEERKT_PKc.exit
  %.0 = phi i32 [ 1, %_ZNK7Imf_3_46Header14typedAttributeINS_14TypedAttributeIN9Imath_3_24Vec3IiEEEEEERKT_PKc.exit ], [ 0, %25 ]
  ret i32 %.0

34:                                               ; preds = %.body
  resume { ptr, i32 } %eh.lpad-body
}